; Function Attrs: mustprogress nofree norecurse nosync nounwind willreturn memory(none) uwtable
define range(i32 -2147483648, 2147483647) i32 @ff_g723_1_normalize_bits(i32 noundef %0, i32 noundef %1) local_unnamed_addr #2 {
  %.not.i = icmp ult i32 %0, 65536
  %3 = lshr i32 %0, 16
  %spec.select.i = select i1 %.not.i, i32 %0, i32 %3
  %spec.select12.i = select i1 %.not.i, i32 0, i32 16
  %.not11.i = icmp samesign ult i32 %spec.select.i, 256
  %4 = lshr i32 %spec.select.i, 8
  %5 = or disjoint i32 %spec.select12.i, 8
  %.110.i = select i1 %.not11.i, i32 %spec.select.i, i32 %4
  %.1.i = select i1 %.not11.i, i32 %spec.select12.i, i32 %5
  %6 = zext nneg i32 %.110.i to i64
  %7 = getelementptr inbounds nuw [256 x i8], ptr @ff_log2_tab, i64 0, i64 %6
  %8 = load i8, ptr %7, align 1, !tbaa !10
  %9 = zext i8 %8 to i32
  %10 = add nuw nsw i32 %.1.i, %9
  %11 = xor i32 %10, -1
  %12 = add i32 %1, %11
  ret i32 %12
}